target datalayout = "e-m:e-p270:32:32-p271:32:32-p272:64:64-i64:64-i128:128-f80:128-n8:16:32:64-S128"
target triple = "x86_64-unknown-linux-gnu"

%"class.absl::debian2::string_view" = type { ptr, i64 }
%"class.std::__cxx11::basic_string" = type { %"struct.std::__cxx11::basic_string<char>::_Alloc_hider", i64, %union.anon }
%"struct.std::__cxx11::basic_string<char>::_Alloc_hider" = type { ptr }
%union.anon = type { i64, [8 x i8] }
%"class.std::allocator" = type { i8 }
%class.anon.53 = type { i8 }

@.str.36 = private unnamed_addr constant [4 x i8] c"...\00", align 1
@.str.37 = private unnamed_addr constant [26 x i8] c"absl::string_view::substr\00", align 1

; Function Attrs: mustprogress nounwind uwtable
define linkonce_odr void @_ZZN4absl7debian211string_view19CheckLengthInternalEmENKUlvE_clEv(ptr noundef nonnull align 1 dereferenceable(1) %this) #0 comdat align 2 {
entry:
  %this.addr = alloca ptr, align 8
  store ptr %this, ptr %this.addr, align 8
  br label %do.body

do.body:                                          ; preds = %entry
  call void @llvm.trap()
  unreachable

do.end:                                           ; No predecessors!
  ret void
}

; Function Attrs: mustprogress uwtable
define linkonce_odr noundef i64 @_ZN4absl7debian211string_view19CheckLengthInternalEm(i64 noundef %len) #1 comdat align 2 {
entry:
  %len.addr = alloca i64, align 8
  %ref.tmp = alloca %class.anon.53, align 1
  store i64 %len, ptr %len.addr, align 8
  %0 = load i64, ptr %len.addr, align 8
  %cmp = icmp ule i64 %0, 9223372036854775807
  br i1 %cmp, label %cond.true, label %cond.false

cond.true:                                        ; preds = %entry
  br label %cond.end

cond.false:                                       ; preds = %entry
  call void @_ZZN4absl7debian211string_view19CheckLengthInternalEmENKUlvE_clEv(ptr noundef nonnull align 1 dereferenceable(1) %ref.tmp)
  br label %cond.end

cond.end:                                         ; preds = %cond.false, %cond.true
  %1 = load i64, ptr %len.addr, align 8
  ret i64 %1
}

; Function Attrs: mustprogress uwtable
define linkonce_odr void @_ZN4absl7debian211string_viewC2EPKcm(ptr noundef nonnull align 8 dereferenceable(16) %this, ptr noundef %data, i64 noundef %len) unnamed_addr #1 comdat align 2 {
entry:
  %this.addr = alloca ptr, align 8
  %data.addr = alloca ptr, align 8
  %len.addr = alloca i64, align 8
  store ptr %this, ptr %this.addr, align 8
  store ptr %data, ptr %data.addr, align 8
  store i64 %len, ptr %len.addr, align 8
  %this1 = load ptr, ptr %this.addr, align 8
  %ptr_ = getelementptr inbounds %"class.absl::debian2::string_view", ptr %this1, i32 0, i32 0
  %0 = load ptr, ptr %data.addr, align 8
  store ptr %0, ptr %ptr_, align 8
  %length_ = getelementptr inbounds %"class.absl::debian2::string_view", ptr %this1, i32 0, i32 1
  %1 = load i64, ptr %len.addr, align 8
  %call = call noundef i64 @_ZN4absl7debian211string_view19CheckLengthInternalEm(i64 noundef %1)
  store i64 %call, ptr %length_, align 8
  ret void
}

; Function Attrs: mustprogress nounwind uwtable
define linkonce_odr noundef i64 @_ZN4absl7debian211string_view3MinEmm(i64 noundef %length_a, i64 noundef %length_b) #0 comdat align 2 {
entry:
  %length_a.addr = alloca i64, align 8
  %length_b.addr = alloca i64, align 8
  store i64 %length_a, ptr %length_a.addr, align 8
  store i64 %length_b, ptr %length_b.addr, align 8
  %0 = load i64, ptr %length_a.addr, align 8
  %1 = load i64, ptr %length_b.addr, align 8
  %cmp = icmp ult i64 %0, %1
  br i1 %cmp, label %cond.true, label %cond.false

cond.true:                                        ; preds = %entry
  %2 = load i64, ptr %length_a.addr, align 8
  br label %cond.end

cond.false:                                       ; preds = %entry
  %3 = load i64, ptr %length_b.addr, align 8
  br label %cond.end

cond.end:                                         ; preds = %cond.false, %cond.true
  %cond = phi i64 [ %2, %cond.true ], [ %3, %cond.false ]
  ret i64 %cond
}

; Function Attrs: mustprogress nounwind uwtable
define linkonce_odr void @_ZN4absl7debian211string_viewC2Ev(ptr noundef nonnull align 8 dereferenceable(16) %this) unnamed_addr #0 comdat align 2 {
entry:
  %this.addr = alloca ptr, align 8
  store ptr %this, ptr %this.addr, align 8
  %this1 = load ptr, ptr %this.addr, align 8
  %ptr_ = getelementptr inbounds %"class.absl::debian2::string_view", ptr %this1, i32 0, i32 0
  store ptr null, ptr %ptr_, align 8
  %length_ = getelementptr inbounds %"class.absl::debian2::string_view", ptr %this1, i32 0, i32 1
  store i64 0, ptr %length_, align 8
  ret void
}

; Function Attrs: mustprogress nounwind uwtable
define linkonce_odr noundef ptr @_ZNK4absl7debian211string_view4dataEv(ptr noundef nonnull align 8 dereferenceable(16) %this) #0 comdat align 2 {
entry:
  %this.addr = alloca ptr, align 8
  store ptr %this, ptr %this.addr, align 8
  %this1 = load ptr, ptr %this.addr, align 8
  %ptr_ = getelementptr inbounds %"class.absl::debian2::string_view", ptr %this1, i32 0, i32 0
  %0 = load ptr, ptr %ptr_, align 8
  ret ptr %0
}

; Function Attrs: mustprogress uwtable
define linkonce_odr void @_ZStplIcSt11char_traitsIcESaIcEENSt7__cxx1112basic_stringIT_T0_T1_EEOS8_PKS5_(ptr noalias sret(%"class.std::__cxx11::basic_string") align 8 %agg.result, ptr noundef nonnull align 8 dereferenceable(32) %__lhs, ptr noundef %__rhs) #1 comdat {
entry:
  %result.ptr = alloca ptr, align 8
  %__lhs.addr = alloca ptr, align 8
  %__rhs.addr = alloca ptr, align 8
  store ptr %agg.result, ptr %result.ptr, align 8
  store ptr %__lhs, ptr %__lhs.addr, align 8
  store ptr %__rhs, ptr %__rhs.addr, align 8
  %0 = load ptr, ptr %__lhs.addr, align 8
  %1 = load ptr, ptr %__rhs.addr, align 8
  %call = call noundef nonnull align 8 dereferenceable(32) ptr @_ZNSt7__cxx1112basic_stringIcSt11char_traitsIcESaIcEE6appendEPKc(ptr noundef nonnull align 8 dereferenceable(32) %0, ptr noundef %1)
  call void @_ZNSt7__cxx1112basic_stringIcSt11char_traitsIcESaIcEEC1EOS4_(ptr noundef nonnull align 8 dereferenceable(32) %agg.result, ptr noundef nonnull align 8 dereferenceable(32) %call) #16
  ret void
}

; Function Attrs: mustprogress uwtable
define linkonce_odr { ptr, i64 } @_ZNK4absl7debian211string_view6substrEmm(ptr noundef nonnull align 8 dereferenceable(16) %this, i64 noundef %pos, i64 noundef %n) #1 comdat align 2 {
entry:
  %retval = alloca %"class.absl::debian2::string_view", align 8
  %this.addr = alloca ptr, align 8
  %pos.addr = alloca i64, align 8
  %n.addr = alloca i64, align 8
  store ptr %this, ptr %this.addr, align 8
  store i64 %pos, ptr %pos.addr, align 8
  store i64 %n, ptr %n.addr, align 8
  %this1 = load ptr, ptr %this.addr, align 8
  %0 = load i64, ptr %pos.addr, align 8
  %length_ = getelementptr inbounds %"class.absl::debian2::string_view", ptr %this1, i32 0, i32 1
  %1 = load i64, ptr %length_, align 8
  %cmp = icmp ugt i64 %0, %1
  br i1 %cmp, label %cond.true, label %cond.false

cond.true:                                        ; preds = %entry
  call void @_ZN4absl7debian213base_internal18ThrowStdOutOfRangeEPKc(ptr noundef @.str.37) #20
  unreachable

2:                                                ; No predecessors!
  call void @_ZN4absl7debian211string_viewC2Ev(ptr noundef nonnull align 8 dereferenceable(16) %retval) #16
  br label %cond.end

cond.false:                                       ; preds = %entry
  %ptr_ = getelementptr inbounds %"class.absl::debian2::string_view", ptr %this1, i32 0, i32 0
  %3 = load ptr, ptr %ptr_, align 8
  %4 = load i64, ptr %pos.addr, align 8
  %add.ptr = getelementptr inbounds i8, ptr %3, i64 %4
  %5 = load i64, ptr %n.addr, align 8
  %length_2 = getelementptr inbounds %"class.absl::debian2::string_view", ptr %this1, i32 0, i32 1
  %6 = load i64, ptr %length_2, align 8
  %7 = load i64, ptr %pos.addr, align 8
  %sub = sub i64 %6, %7
  %call = call noundef i64 @_ZN4absl7debian211string_view3MinEmm(i64 noundef %5, i64 noundef %sub)
  call void @_ZN4absl7debian211string_viewC2EPKcm(ptr noundef nonnull align 8 dereferenceable(16) %retval, ptr noundef %add.ptr, i64 noundef %call)
  br label %cond.end

cond.end:                                         ; preds = %cond.false, %2
  %8 = load { ptr, i64 }, ptr %retval, align 8
  ret { ptr, i64 } %8
}

; Function Attrs: mustprogress uwtable
define linkonce_odr void @_ZNK4absl7debian211string_viewcvNSt7__cxx1112basic_stringIcSt11char_traitsIcET_EEISaIcEEEv(ptr noalias sret(%"class.std::__cxx11::basic_string") align 8 %agg.result, ptr noundef nonnull align 8 dereferenceable(16) %this) #1 comdat align 2 personality ptr @__gxx_personality_v0 {
entry:
  %result.ptr = alloca ptr, align 8
  %this.addr = alloca ptr, align 8
  %ref.tmp = alloca %"class.std::allocator", align 1
  %exn.slot = alloca ptr, align 8
  %ehselector.slot = alloca i32, align 4
  store ptr %agg.result, ptr %result.ptr, align 8
  store ptr %this, ptr %this.addr, align 8
  %this1 = load ptr, ptr %this.addr, align 8
  %call = call noundef ptr @_ZNK4absl7debian211string_view4dataEv(ptr noundef nonnull align 8 dereferenceable(16) %this1) #16
  %tobool = icmp ne ptr %call, null
  br i1 %tobool, label %if.end, label %if.then

if.then:                                          ; preds = %entry
  call void @_ZNSt7__cxx1112basic_stringIcSt11char_traitsIcESaIcEEC1Ev(ptr noundef nonnull align 8 dereferenceable(32) %agg.result) #16
  br label %return

if.end:                                           ; preds = %entry
  %call2 = call noundef ptr @_ZNK4absl7debian211string_view4dataEv(ptr noundef nonnull align 8 dereferenceable(16) %this1) #16
  %call3 = call noundef i64 @_ZNK4absl7debian211string_view4sizeEv(ptr noundef nonnull align 8 dereferenceable(16) %this1) #16
  call void @_ZNSaIcEC1Ev(ptr noundef nonnull align 1 dereferenceable(1) %ref.tmp) #16
  invoke void @_ZNSt7__cxx1112basic_stringIcSt11char_traitsIcESaIcEEC1EPKcmRKS3_(ptr noundef nonnull align 8 dereferenceable(32) %agg.result, ptr noundef %call2, i64 noundef %call3, ptr noundef nonnull align 1 dereferenceable(1) %ref.tmp)
          to label %invoke.cont unwind label %lpad

invoke.cont:                                      ; preds = %if.end
  call void @_ZNSaIcED1Ev(ptr noundef nonnull align 1 dereferenceable(1) %ref.tmp) #16
  br label %return

lpad:                                             ; preds = %if.end
  %0 = landingpad { ptr, i32 }
          cleanup
  %1 = extractvalue { ptr, i32 } %0, 0
  store ptr %1, ptr %exn.slot, align 8
  %2 = extractvalue { ptr, i32 } %0, 1
  store i32 %2, ptr %ehselector.slot, align 4
  call void @_ZNSaIcED1Ev(ptr noundef nonnull align 1 dereferenceable(1) %ref.tmp) #16
  br label %eh.resume

return:                                           ; preds = %invoke.cont, %if.then
  ret void

eh.resume:                                        ; preds = %lpad
  %exn = load ptr, ptr %exn.slot, align 8
  %sel = load i32, ptr %ehselector.slot, align 4
  %lpad.val = insertvalue { ptr, i32 } poison, ptr %exn, 0
  %lpad.val4 = insertvalue { ptr, i32 } %lpad.val, i32 %sel, 1
  resume { ptr, i32 } %lpad.val4
}

; Function Attrs: mustprogress nounwind uwtable
define linkonce_odr noundef i64 @_ZNK4absl7debian211string_view4sizeEv(ptr noundef nonnull align 8 dereferenceable(16) %this) #0 comdat align 2 {
entry:
  %this.addr = alloca ptr, align 8
  store ptr %this, ptr %this.addr, align 8
  %this1 = load ptr, ptr %this.addr, align 8
  %length_ = getelementptr inbounds %"class.absl::debian2::string_view", ptr %this1, i32 0, i32 1
  %0 = load i64, ptr %length_, align 8
  ret i64 %0
}

; Function Attrs: mustprogress uwtable
define internal void @_ZN3re2L5truncB5cxx11EN4absl7debian211string_viewE(ptr noalias sret(%"class.std::__cxx11::basic_string") align 8 %agg.result, ptr %pattern.coerce0, i64 %pattern.coerce1) #1 personality ptr @__gxx_personality_v0 {
entry:
  %result.ptr = alloca ptr, align 8
  %pattern = alloca %"class.absl::debian2::string_view", align 8
  %ref.tmp = alloca %"class.std::__cxx11::basic_string", align 8
  %ref.tmp1 = alloca %"class.absl::debian2::string_view", align 8
  %exn.slot = alloca ptr, align 8
  %ehselector.slot = alloca i32, align 4
  store ptr %agg.result, ptr %result.ptr, align 8
  %0 = getelementptr inbounds { ptr, i64 }, ptr %pattern, i32 0, i32 0
  store ptr %pattern.coerce0, ptr %0, align 8
  %1 = getelementptr inbounds { ptr, i64 }, ptr %pattern, i32 0, i32 1
  store i64 %pattern.coerce1, ptr %1, align 8
  %call = call noundef i64 @_ZNK4absl7debian211string_view4sizeEv(ptr noundef nonnull align 8 dereferenceable(16) %pattern) #16
  %cmp = icmp ult i64 %call, 100
  br i1 %cmp, label %if.then, label %if.end

if.then:                                          ; preds = %entry
  call void @_ZNK4absl7debian211string_viewcvNSt7__cxx1112basic_stringIcSt11char_traitsIcET_EEISaIcEEEv(ptr sret(%"class.std::__cxx11::basic_string") align 8 %agg.result, ptr noundef nonnull align 8 dereferenceable(16) %pattern)
  br label %return

if.end:                                           ; preds = %entry
  %call2 = call { ptr, i64 } @_ZNK4absl7debian211string_view6substrEmm(ptr noundef nonnull align 8 dereferenceable(16) %pattern, i64 noundef 0, i64 noundef 100)
  %2 = getelementptr inbounds { ptr, i64 }, ptr %ref.tmp1, i32 0, i32 0
  %3 = extractvalue { ptr, i64 } %call2, 0
  store ptr %3, ptr %2, align 8
  %4 = getelementptr inbounds { ptr, i64 }, ptr %ref.tmp1, i32 0, i32 1
  %5 = extractvalue { ptr, i64 } %call2, 1
  store i64 %5, ptr %4, align 8
  call void @_ZNK4absl7debian211string_viewcvNSt7__cxx1112basic_stringIcSt11char_traitsIcET_EEISaIcEEEv(ptr sret(%"class.std::__cxx11::basic_string") align 8 %ref.tmp, ptr noundef nonnull align 8 dereferenceable(16) %ref.tmp1)
  invoke void @_ZStplIcSt11char_traitsIcESaIcEENSt7__cxx1112basic_stringIT_T0_T1_EEOS8_PKS5_(ptr sret(%"class.std::__cxx11::basic_string") align 8 %agg.result, ptr noundef nonnull align 8 dereferenceable(32) %ref.tmp, ptr noundef @.str.36)
          to label %invoke.cont unwind label %lpad

invoke.cont:                                      ; preds = %if.end
  call void @_ZNSt7__cxx1112basic_stringIcSt11char_traitsIcESaIcEED1Ev(ptr noundef nonnull align 8 dereferenceable(32) %ref.tmp) #16
  br label %return

lpad:                                             ; preds = %if.end
  %6 = landingpad { ptr, i32 }
          cleanup
  %7 = extractvalue { ptr, i32 } %6, 0
  store ptr %7, ptr %exn.slot, align 8
  %8 = extractvalue { ptr, i32 } %6, 1
  store i32 %8, ptr %ehselector.slot, align 4
  call void @_ZNSt7__cxx1112basic_stringIcSt11char_traitsIcESaIcEED1Ev(ptr noundef nonnull align 8 dereferenceable(32) %ref.tmp) #16
  br label %eh.resume

return:                                           ; preds = %invoke.cont, %if.then
  ret void

eh.resume:                                        ; preds = %lpad
  %exn = load ptr, ptr %exn.slot, align 8
  %sel = load i32, ptr %ehselector.slot, align 4
  %lpad.val = insertvalue { ptr, i32 } poison, ptr %exn, 0
  %lpad.val3 = insertvalue { ptr, i32 } %lpad.val, i32 %sel, 1
  resume { ptr, i32 } %lpad.val3
}