; Function Attrs: mustprogress uwtable
define internal fastcc void @_ZN3re2L5truncB5cxx11EN4absl7debian211string_viewE(ptr noalias nonnull align 8 %agg.result, ptr %pattern.coerce0, i64 %pattern.coerce1) unnamed_addr #2 personality ptr @__gxx_personality_v0 {
entry:
  %ref.tmp.i2 = alloca %"class.std::allocator", align 1
  %ref.tmp.i = alloca %"class.std::allocator", align 1
  %ref.tmp = alloca %"class.std::__cxx11::basic_string", align 8
  %cmp = icmp ult i64 %pattern.coerce1, 100
  %tobool.not.i = icmp eq ptr %pattern.coerce0, null
  br i1 %cmp, label %if.then, label %if.end

if.then:                                          ; preds = %entry
  call void @llvm.lifetime.start.p0(i64 1, ptr nonnull %ref.tmp.i)
  br i1 %tobool.not.i, label %if.then.i, label %if.end.i

if.then.i:                                        ; preds = %if.then
  tail call void @_ZNSt7__cxx1112basic_stringIcSt11char_traitsIcESaIcEEC1Ev(ptr noundef nonnull align 8 dereferenceable(32) %agg.result) #30
  br label %_ZNK4absl7debian211string_viewcvNSt7__cxx1112basic_stringIcSt11char_traitsIcET_EEISaIcEEEv.exit

if.end.i:                                         ; preds = %if.then
  call void @_ZNSaIcEC1Ev(ptr noundef nonnull align 1 dereferenceable(1) %ref.tmp.i) #30, !noalias !10
  invoke void @_ZNSt7__cxx1112basic_stringIcSt11char_traitsIcESaIcEEC1EPKcmRKS3_(ptr noundef nonnull align 8 dereferenceable(32) %agg.result, ptr noundef nonnull %pattern.coerce0, i64 noundef %pattern.coerce1, ptr noundef nonnull align 1 dereferenceable(1) %ref.tmp.i)
          to label %invoke.cont.i unwind label %lpad.i

invoke.cont.i:                                    ; preds = %if.end.i
  call void @_ZNSaIcED1Ev(ptr noundef nonnull align 1 dereferenceable(1) %ref.tmp.i) #30
  br label %_ZNK4absl7debian211string_viewcvNSt7__cxx1112basic_stringIcSt11char_traitsIcET_EEISaIcEEEv.exit

common.resume:                                    ; preds = %lpad, %lpad.i6, %lpad.i
  %common.resume.op = phi { ptr, i32 } [ %0, %lpad.i ], [ %1, %lpad.i6 ], [ %2, %lpad ]
  resume { ptr, i32 } %common.resume.op

lpad.i:                                           ; preds = %if.end.i
  %0 = landingpad { ptr, i32 }
          cleanup
  call void @_ZNSaIcED1Ev(ptr noundef nonnull align 1 dereferenceable(1) %ref.tmp.i) #30
  br label %common.resume

_ZNK4absl7debian211string_viewcvNSt7__cxx1112basic_stringIcSt11char_traitsIcET_EEISaIcEEEv.exit: ; preds = %if.then.i, %invoke.cont.i
  call void @llvm.lifetime.end.p0(i64 1, ptr nonnull %ref.tmp.i)
  br label %return

if.end:                                           ; preds = %entry
  call void @llvm.lifetime.start.p0(i64 1, ptr nonnull %ref.tmp.i2)
  br i1 %tobool.not.i, label %if.then.i8, label %if.end.i4

if.then.i8:                                       ; preds = %if.end
  call void @_ZNSt7__cxx1112basic_stringIcSt11char_traitsIcESaIcEEC1Ev(ptr noundef nonnull align 8 dereferenceable(32) %ref.tmp) #30
  br label %_ZNK4absl7debian211string_viewcvNSt7__cxx1112basic_stringIcSt11char_traitsIcET_EEISaIcEEEv.exit9

if.end.i4:                                        ; preds = %if.end
  call void @_ZNSaIcEC1Ev(ptr noundef nonnull align 1 dereferenceable(1) %ref.tmp.i2) #30, !noalias !13
  invoke void @_ZNSt7__cxx1112basic_stringIcSt11char_traitsIcESaIcEEC1EPKcmRKS3_(ptr noundef nonnull align 8 dereferenceable(32) %ref.tmp, ptr noundef nonnull %pattern.coerce0, i64 noundef 100, ptr noundef nonnull align 1 dereferenceable(1) %ref.tmp.i2)
          to label %invoke.cont.i7 unwind label %lpad.i6

invoke.cont.i7:                                   ; preds = %if.end.i4
  call void @_ZNSaIcED1Ev(ptr noundef nonnull align 1 dereferenceable(1) %ref.tmp.i2) #30
  br label %_ZNK4absl7debian211string_viewcvNSt7__cxx1112basic_stringIcSt11char_traitsIcET_EEISaIcEEEv.exit9

lpad.i6:                                          ; preds = %if.end.i4
  %1 = landingpad { ptr, i32 }
          cleanup
  call void @_ZNSaIcED1Ev(ptr noundef nonnull align 1 dereferenceable(1) %ref.tmp.i2) #30
  br label %common.resume

_ZNK4absl7debian211string_viewcvNSt7__cxx1112basic_stringIcSt11char_traitsIcET_EEISaIcEEEv.exit9: ; preds = %if.then.i8, %invoke.cont.i7
  call void @llvm.lifetime.end.p0(i64 1, ptr nonnull %ref.tmp.i2)
  %call.i10 = invoke noundef nonnull align 8 dereferenceable(32) ptr @_ZNSt7__cxx1112basic_stringIcSt11char_traitsIcESaIcEE6appendEPKc(ptr noundef nonnull align 8 dereferenceable(32) %ref.tmp, ptr noundef nonnull @.str.36)
          to label %invoke.cont unwind label %lpad

invoke.cont:                                      ; preds = %_ZNK4absl7debian211string_viewcvNSt7__cxx1112basic_stringIcSt11char_traitsIcET_EEISaIcEEEv.exit9
  call void @_ZNSt7__cxx1112basic_stringIcSt11char_traitsIcESaIcEEC1EOS4_(ptr noundef nonnull align 8 dereferenceable(32) %agg.result, ptr noundef nonnull align 8 dereferenceable(32) %call.i10) #30
  call void @_ZNSt7__cxx1112basic_stringIcSt11char_traitsIcESaIcEED1Ev(ptr noundef nonnull align 8 dereferenceable(32) %ref.tmp) #30
  br label %return

lpad:                                             ; preds = %_ZNK4absl7debian211string_viewcvNSt7__cxx1112basic_stringIcSt11char_traitsIcET_EEISaIcEEEv.exit9
  %2 = landingpad { ptr, i32 }
          cleanup
  call void @_ZNSt7__cxx1112basic_stringIcSt11char_traitsIcESaIcEED1Ev(ptr noundef nonnull align 8 dereferenceable(32) %ref.tmp) #30
  br label %common.resume

return:                                           ; preds = %invoke.cont, %_ZNK4absl7debian211string_viewcvNSt7__cxx1112basic_stringIcSt11char_traitsIcET_EEISaIcEEEv.exit
  ret void
}